target datalayout = "e-m:e-p270:32:32-p271:32:32-p272:64:64-i64:64-i128:128-f80:128-n8:16:32:64-S128"
target triple = "x86_64-pc-linux-gnu"

%struct.prov_drbg_st = type { ptr, ptr, ptr, ptr, ptr, ptr, ptr, ptr, ptr, ptr, ptr, ptr, ptr, ptr, i32, i16, i32, i64, i64, i64, i64, i64, i64, i64, i32, i32, i64, i64, i32, i32, i32, i64, i32, ptr, ptr, ptr, ptr, ptr, ptr }
%struct.rand_drbg_hash_st = type { %struct.PROV_DIGEST, ptr, i64, [111 x i8], [111 x i8], [111 x i8] }
%struct.PROV_DIGEST = type { ptr, ptr, ptr }

; Function Attrs: nounwind uwtable
define internal i32 @hash_df1(ptr noundef %0, ptr noundef %1, i8 noundef zeroext %2, ptr noundef %3, i64 noundef %4) #0 {
  %6 = alloca ptr, align 8
  %7 = alloca ptr, align 8
  %8 = alloca i8, align 1
  %9 = alloca ptr, align 8
  %10 = alloca i64, align 8
  store ptr %0, ptr %6, align 8, !tbaa !9
  store ptr %1, ptr %7, align 8, !tbaa !26
  store i8 %2, ptr %8, align 1, !tbaa !33
  store ptr %3, ptr %9, align 8, !tbaa !26
  store i64 %4, ptr %10, align 8, !tbaa !28
  %11 = load ptr, ptr %6, align 8, !tbaa !9
  %12 = load ptr, ptr %7, align 8, !tbaa !26
  %13 = load i8, ptr %8, align 1, !tbaa !33
  %14 = load ptr, ptr %9, align 8, !tbaa !26
  %15 = load i64, ptr %10, align 8, !tbaa !28
  %16 = call i32 @hash_df(ptr noundef %11, ptr noundef %12, i8 noundef zeroext %13, ptr noundef %14, i64 noundef %15, ptr noundef null, i64 noundef 0, ptr noundef null, i64 noundef 0)
  ret i32 %16
}

; Function Attrs: nounwind uwtable
define internal i32 @drbg_hash_reseed(ptr noundef %0, ptr noundef %1, i64 noundef %2, ptr noundef %3, i64 noundef %4) #0 {
  %6 = alloca i32, align 4
  %7 = alloca ptr, align 8
  %8 = alloca ptr, align 8
  %9 = alloca i64, align 8
  %10 = alloca ptr, align 8
  %11 = alloca i64, align 8
  %12 = alloca ptr, align 8
  %13 = alloca i32, align 4
  store ptr %0, ptr %7, align 8, !tbaa !9
  store ptr %1, ptr %8, align 8, !tbaa !26
  store i64 %2, ptr %9, align 8, !tbaa !28
  store ptr %3, ptr %10, align 8, !tbaa !26
  store i64 %4, ptr %11, align 8, !tbaa !28
  call void @llvm.lifetime.start.p0(i64 8, ptr %12) #4
  %14 = load ptr, ptr %7, align 8, !tbaa !9
  %15 = getelementptr inbounds nuw %struct.prov_drbg_st, ptr %14, i32 0, i32 33
  %16 = load ptr, ptr %15, align 8, !tbaa !11
  store ptr %16, ptr %12, align 8, !tbaa !17
  %17 = load ptr, ptr %7, align 8, !tbaa !9
  %18 = load ptr, ptr %12, align 8, !tbaa !17
  %19 = getelementptr inbounds nuw %struct.rand_drbg_hash_st, ptr %18, i32 0, i32 4
  %20 = getelementptr inbounds [111 x i8], ptr %19, i64 0, i64 0
  %21 = load ptr, ptr %12, align 8, !tbaa !17
  %22 = getelementptr inbounds nuw %struct.rand_drbg_hash_st, ptr %21, i32 0, i32 3
  %23 = getelementptr inbounds [111 x i8], ptr %22, i64 0, i64 0
  %24 = load ptr, ptr %7, align 8, !tbaa !9
  %25 = getelementptr inbounds nuw %struct.prov_drbg_st, ptr %24, i32 0, i32 31
  %26 = load i64, ptr %25, align 8, !tbaa !38
  %27 = load ptr, ptr %8, align 8, !tbaa !26
  %28 = load i64, ptr %9, align 8, !tbaa !28
  %29 = load ptr, ptr %10, align 8, !tbaa !26
  %30 = load i64, ptr %11, align 8, !tbaa !28
  %31 = call i32 @hash_df(ptr noundef %17, ptr noundef %20, i8 noundef zeroext 1, ptr noundef %23, i64 noundef %26, ptr noundef %27, i64 noundef %28, ptr noundef %29, i64 noundef %30)
  %32 = icmp ne i32 %31, 0
  br i1 %32, label %34, label %33

33:                                               ; preds = %5
  store i32 0, ptr %6, align 4
  store i32 1, ptr %13, align 4
  br label %55

34:                                               ; preds = %5
  %35 = load ptr, ptr %12, align 8, !tbaa !17
  %36 = getelementptr inbounds nuw %struct.rand_drbg_hash_st, ptr %35, i32 0, i32 3
  %37 = getelementptr inbounds [111 x i8], ptr %36, i64 0, i64 0
  %38 = load ptr, ptr %12, align 8, !tbaa !17
  %39 = getelementptr inbounds nuw %struct.rand_drbg_hash_st, ptr %38, i32 0, i32 4
  %40 = getelementptr inbounds [111 x i8], ptr %39, i64 0, i64 0
  %41 = load ptr, ptr %7, align 8, !tbaa !9
  %42 = getelementptr inbounds nuw %struct.prov_drbg_st, ptr %41, i32 0, i32 31
  %43 = load i64, ptr %42, align 8, !tbaa !38
  call void @llvm.memcpy.p0.p0.i64(ptr align 8 %37, ptr align 1 %40, i64 %43, i1 false)
  %44 = load ptr, ptr %7, align 8, !tbaa !9
  %45 = load ptr, ptr %12, align 8, !tbaa !17
  %46 = getelementptr inbounds nuw %struct.rand_drbg_hash_st, ptr %45, i32 0, i32 4
  %47 = getelementptr inbounds [111 x i8], ptr %46, i64 0, i64 0
  %48 = load ptr, ptr %12, align 8, !tbaa !17
  %49 = getelementptr inbounds nuw %struct.rand_drbg_hash_st, ptr %48, i32 0, i32 3
  %50 = getelementptr inbounds [111 x i8], ptr %49, i64 0, i64 0
  %51 = load ptr, ptr %7, align 8, !tbaa !9
  %52 = getelementptr inbounds nuw %struct.prov_drbg_st, ptr %51, i32 0, i32 31
  %53 = load i64, ptr %52, align 8, !tbaa !38
  %54 = call i32 @hash_df1(ptr noundef %44, ptr noundef %47, i8 noundef zeroext 0, ptr noundef %50, i64 noundef %53)
  store i32 %54, ptr %6, align 4
  store i32 1, ptr %13, align 4
  br label %55

55:                                               ; preds = %34, %33
  call void @llvm.lifetime.end.p0(i64 8, ptr %12) #4
  %56 = load i32, ptr %6, align 4
  ret i32 %56
}