; Function Attrs: nounwind uwtable
define internal range(i32 0, 2) i32 @drbg_hash_reseed(ptr noundef readonly captures(none) %0, ptr noundef %1, i64 noundef %2, ptr noundef %3, i64 noundef %4) #0 {
  %6 = getelementptr inbounds nuw i8, ptr %0, i64 240
  %7 = load ptr, ptr %6, align 8, !tbaa !3
  %8 = getelementptr inbounds nuw i8, ptr %7, i64 151
  %9 = getelementptr inbounds nuw i8, ptr %7, i64 40
  %10 = getelementptr inbounds nuw i8, ptr %0, i64 224
  %11 = load i64, ptr %10, align 8, !tbaa !25
  %12 = tail call fastcc i32 @hash_df(i64 %11, ptr %7, ptr noundef nonnull %8, i8 noundef zeroext 1, ptr noundef nonnull %9, i64 noundef %11, ptr noundef %1, i64 noundef %2, ptr noundef %3, i64 noundef %4)
  %.not = icmp eq i32 %12, 0
  br i1 %.not, label %17, label %13

13:                                               ; preds = %5
  %14 = load i64, ptr %10, align 8, !tbaa !25
  tail call void @llvm.memcpy.p0.p0.i64(ptr nonnull align 8 %9, ptr nonnull align 1 %8, i64 %14, i1 false)
  %15 = load i64, ptr %10, align 8, !tbaa !25
  %.val18 = load ptr, ptr %6, align 8, !tbaa !3
  %16 = tail call fastcc range(i32 0, 2) i32 @hash_df(i64 %15, ptr %.val18, ptr noundef nonnull %8, i8 noundef zeroext 0, ptr noundef nonnull %9, i64 noundef %15, ptr noundef null, i64 noundef 0, ptr noundef null, i64 noundef 0)
  br label %17

17:                                               ; preds = %5, %13
  %.0 = phi i32 [ %16, %13 ], [ 0, %5 ]
  ret i32 %.0
}